; Function Attrs: mustprogress nounwind uwtable
define dso_local void @_ZN5clang14TextNodeDumper11dumpPointerEPKv(ptr nocapture noundef nonnull readonly align 8 dereferenceable(1168) %0, ptr noundef %1) local_unnamed_addr #0 align 2 {
  %3 = getelementptr inbounds nuw i8, ptr %0, i64 1096
  %4 = load ptr, ptr %3, align 8
  %5 = getelementptr inbounds nuw i8, ptr %0, i64 1104
  %6 = load i8, ptr %5, align 8
  %7 = trunc i8 %6 to i1
  br i1 %7, label %8, label %_ZN5clang10ColorScopeC2ERN4llvm11raw_ostreamEbNS_13TerminalColorE.exit

8:                                                ; preds = %2
  %9 = load ptr, ptr %4, align 8
  %10 = getelementptr inbounds i8, ptr %9, i64 24
  %11 = load ptr, ptr %10, align 8
  %12 = tail call noundef nonnull align 8 dereferenceable(48) ptr %11(ptr noundef nonnull align 8 dereferenceable(48) %4, i32 noundef 3, i1 noundef zeroext false, i1 noundef zeroext false) #18
  %.pre = load ptr, ptr %3, align 8
  br label %_ZN5clang10ColorScopeC2ERN4llvm11raw_ostreamEbNS_13TerminalColorE.exit

_ZN5clang10ColorScopeC2ERN4llvm11raw_ostreamEbNS_13TerminalColorE.exit: ; preds = %2, %8
  %13 = phi ptr [ %4, %2 ], [ %.pre, %8 ]
  %14 = getelementptr inbounds nuw i8, ptr %13, i64 32
  %15 = load ptr, ptr %14, align 8
  %16 = getelementptr inbounds nuw i8, ptr %13, i64 24
  %17 = load ptr, ptr %16, align 8
  %.not.i = icmp ult ptr %15, %17
  br i1 %.not.i, label %20, label %18

18:                                               ; preds = %_ZN5clang10ColorScopeC2ERN4llvm11raw_ostreamEbNS_13TerminalColorE.exit
  %19 = tail call noundef nonnull align 8 dereferenceable(48) ptr @_ZN4llvm11raw_ostream5writeEh(ptr noundef nonnull align 8 dereferenceable(48) %13, i8 noundef zeroext 32) #18
  br label %_ZN4llvm11raw_ostreamlsEc.exit

20:                                               ; preds = %_ZN5clang10ColorScopeC2ERN4llvm11raw_ostreamEbNS_13TerminalColorE.exit
  %21 = getelementptr inbounds i8, ptr %15, i64 1
  store ptr %21, ptr %14, align 8
  store i8 32, ptr %15, align 1
  br label %_ZN4llvm11raw_ostreamlsEc.exit

_ZN4llvm11raw_ostreamlsEc.exit:                   ; preds = %18, %20
  %.0.i = phi ptr [ %19, %18 ], [ %13, %20 ]
  %22 = tail call noundef nonnull align 8 dereferenceable(48) ptr @_ZN4llvm11raw_ostreamlsEPKv(ptr noundef nonnull align 8 dereferenceable(48) %.0.i, ptr noundef %1) #18
  br i1 %7, label %23, label %_ZN5clang10ColorScopeD2Ev.exit

23:                                               ; preds = %_ZN4llvm11raw_ostreamlsEc.exit
  %24 = load ptr, ptr %4, align 8
  %25 = getelementptr inbounds i8, ptr %24, i64 32
  %26 = load ptr, ptr %25, align 8
  %27 = tail call noundef nonnull align 8 dereferenceable(48) ptr %26(ptr noundef nonnull align 8 dereferenceable(48) %4) #18
  br label %_ZN5clang10ColorScopeD2Ev.exit

_ZN5clang10ColorScopeD2Ev.exit:                   ; preds = %_ZN4llvm11raw_ostreamlsEc.exit, %23
  ret void
}